
input_proc.out:     file format elf64-x86-64


Disassembly of section .init:

00000000000005a8 <_init>:
 5a8:	48 83 ec 08          	sub    rsp,0x8
 5ac:	48 8b 05 35 0a 20 00 	mov    rax,QWORD PTR [rip+0x200a35]        # 200fe8 <__gmon_start__>
 5b3:	48 85 c0             	test   rax,rax
 5b6:	74 02                	je     5ba <_init+0x12>
 5b8:	ff d0                	call   rax
 5ba:	48 83 c4 08          	add    rsp,0x8
 5be:	c3                   	ret    

Disassembly of section .plt:

00000000000005c0 <.plt>:
 5c0:	ff 35 ea 09 20 00    	push   QWORD PTR [rip+0x2009ea]        # 200fb0 <_GLOBAL_OFFSET_TABLE_+0x8>
 5c6:	ff 25 ec 09 20 00    	jmp    QWORD PTR [rip+0x2009ec]        # 200fb8 <_GLOBAL_OFFSET_TABLE_+0x10>
 5cc:	0f 1f 40 00          	nop    DWORD PTR [rax+0x0]

00000000000005d0 <__stack_chk_fail@plt>:
 5d0:	ff 25 ea 09 20 00    	jmp    QWORD PTR [rip+0x2009ea]        # 200fc0 <__stack_chk_fail@GLIBC_2.4>
 5d6:	68 00 00 00 00       	push   0x0
 5db:	e9 e0 ff ff ff       	jmp    5c0 <.plt>

00000000000005e0 <printf@plt>:
 5e0:	ff 25 e2 09 20 00    	jmp    QWORD PTR [rip+0x2009e2]        # 200fc8 <printf@GLIBC_2.2.5>
 5e6:	68 01 00 00 00       	push   0x1
 5eb:	e9 d0 ff ff ff       	jmp    5c0 <.plt>

00000000000005f0 <__isoc99_scanf@plt>:
 5f0:	ff 25 da 09 20 00    	jmp    QWORD PTR [rip+0x2009da]        # 200fd0 <__isoc99_scanf@GLIBC_2.7>
 5f6:	68 02 00 00 00       	push   0x2
 5fb:	e9 c0 ff ff ff       	jmp    5c0 <.plt>

Disassembly of section .plt.got:

0000000000000600 <__cxa_finalize@plt>:
 600:	ff 25 f2 09 20 00    	jmp    QWORD PTR [rip+0x2009f2]        # 200ff8 <__cxa_finalize@GLIBC_2.2.5>
 606:	66 90                	xchg   ax,ax

Disassembly of section .text:

0000000000000610 <_start>:
 610:	31 ed                	xor    ebp,ebp
 612:	49 89 d1             	mov    r9,rdx
 615:	5e                   	pop    rsi
 616:	48 89 e2             	mov    rdx,rsp
 619:	48 83 e4 f0          	and    rsp,0xfffffffffffffff0
 61d:	50                   	push   rax
 61e:	54                   	push   rsp
 61f:	4c 8d 05 2a 02 00 00 	lea    r8,[rip+0x22a]        # 850 <__libc_csu_fini>
 626:	48 8d 0d b3 01 00 00 	lea    rcx,[rip+0x1b3]        # 7e0 <__libc_csu_init>
 62d:	48 8d 3d e6 00 00 00 	lea    rdi,[rip+0xe6]        # 71a <main>
 634:	ff 15 a6 09 20 00    	call   QWORD PTR [rip+0x2009a6]        # 200fe0 <__libc_start_main@GLIBC_2.2.5>
 63a:	f4                   	hlt    
 63b:	0f 1f 44 00 00       	nop    DWORD PTR [rax+rax*1+0x0]

0000000000000640 <deregister_tm_clones>:
 640:	48 8d 3d c9 09 20 00 	lea    rdi,[rip+0x2009c9]        # 201010 <__TMC_END__>
 647:	55                   	push   rbp
 648:	48 8d 05 c1 09 20 00 	lea    rax,[rip+0x2009c1]        # 201010 <__TMC_END__>
 64f:	48 39 f8             	cmp    rax,rdi
 652:	48 89 e5             	mov    rbp,rsp
 655:	74 19                	je     670 <deregister_tm_clones+0x30>
 657:	48 8b 05 7a 09 20 00 	mov    rax,QWORD PTR [rip+0x20097a]        # 200fd8 <_ITM_deregisterTMCloneTable>
 65e:	48 85 c0             	test   rax,rax
 661:	74 0d                	je     670 <deregister_tm_clones+0x30>
 663:	5d                   	pop    rbp
 664:	ff e0                	jmp    rax
 666:	66 2e 0f 1f 84 00 00 	nop    WORD PTR cs:[rax+rax*1+0x0]
 66d:	00 00 00 
 670:	5d                   	pop    rbp
 671:	c3                   	ret    
 672:	0f 1f 40 00          	nop    DWORD PTR [rax+0x0]
 676:	66 2e 0f 1f 84 00 00 	nop    WORD PTR cs:[rax+rax*1+0x0]
 67d:	00 00 00 

0000000000000680 <register_tm_clones>:
 680:	48 8d 3d 89 09 20 00 	lea    rdi,[rip+0x200989]        # 201010 <__TMC_END__>
 687:	48 8d 35 82 09 20 00 	lea    rsi,[rip+0x200982]        # 201010 <__TMC_END__>
 68e:	55                   	push   rbp
 68f:	48 29 fe             	sub    rsi,rdi
 692:	48 89 e5             	mov    rbp,rsp
 695:	48 c1 fe 03          	sar    rsi,0x3
 699:	48 89 f0             	mov    rax,rsi
 69c:	48 c1 e8 3f          	shr    rax,0x3f
 6a0:	48 01 c6             	add    rsi,rax
 6a3:	48 d1 fe             	sar    rsi,1
 6a6:	74 18                	je     6c0 <register_tm_clones+0x40>
 6a8:	48 8b 05 41 09 20 00 	mov    rax,QWORD PTR [rip+0x200941]        # 200ff0 <_ITM_registerTMCloneTable>
 6af:	48 85 c0             	test   rax,rax
 6b2:	74 0c                	je     6c0 <register_tm_clones+0x40>
 6b4:	5d                   	pop    rbp
 6b5:	ff e0                	jmp    rax
 6b7:	66 0f 1f 84 00 00 00 	nop    WORD PTR [rax+rax*1+0x0]
 6be:	00 00 
 6c0:	5d                   	pop    rbp
 6c1:	c3                   	ret    
 6c2:	0f 1f 40 00          	nop    DWORD PTR [rax+0x0]
 6c6:	66 2e 0f 1f 84 00 00 	nop    WORD PTR cs:[rax+rax*1+0x0]
 6cd:	00 00 00 

00000000000006d0 <__do_global_dtors_aux>:
 6d0:	80 3d 39 09 20 00 00 	cmp    BYTE PTR [rip+0x200939],0x0        # 201010 <__TMC_END__>
 6d7:	75 2f                	jne    708 <__do_global_dtors_aux+0x38>
 6d9:	48 83 3d 17 09 20 00 	cmp    QWORD PTR [rip+0x200917],0x0        # 200ff8 <__cxa_finalize@GLIBC_2.2.5>
 6e0:	00 
 6e1:	55                   	push   rbp
 6e2:	48 89 e5             	mov    rbp,rsp
 6e5:	74 0c                	je     6f3 <__do_global_dtors_aux+0x23>
 6e7:	48 8b 3d 1a 09 20 00 	mov    rdi,QWORD PTR [rip+0x20091a]        # 201008 <__dso_handle>
 6ee:	e8 0d ff ff ff       	call   600 <__cxa_finalize@plt>
 6f3:	e8 48 ff ff ff       	call   640 <deregister_tm_clones>
 6f8:	c6 05 11 09 20 00 01 	mov    BYTE PTR [rip+0x200911],0x1        # 201010 <__TMC_END__>
 6ff:	5d                   	pop    rbp
 700:	c3                   	ret    
 701:	0f 1f 80 00 00 00 00 	nop    DWORD PTR [rax+0x0]
 708:	f3 c3                	repz ret 
 70a:	66 0f 1f 44 00 00    	nop    WORD PTR [rax+rax*1+0x0]

0000000000000710 <frame_dummy>:
 710:	55                   	push   rbp
 711:	48 89 e5             	mov    rbp,rsp
 714:	5d                   	pop    rbp
 715:	e9 66 ff ff ff       	jmp    680 <register_tm_clones>

000000000000071a <main>:
 71a:	55                   	push   rbp
 71b:	48 89 e5             	mov    rbp,rsp
 71e:	48 83 ec 20          	sub    rsp,0x20                  # stack mem allocation
 722:	89 7d ec             	mov    DWORD PTR [rbp-0x14],edi  # $rbp-0x14=edi(1) : arg_count
 725:	48 89 75 e0          	mov    QWORD PTR [rbp-0x20],rsi  # $rbp-0x20=args : *arg_list[]
 729:	64 48 8b 04 25 28 00 	mov    rax,QWORD PTR fs:0x28
 730:	00 00 
 732:	48 89 45 f8          	mov    QWORD PTR [rbp-0x8],rax
 736:	31 c0                	xor    eax,eax
 738:	8b 45 ec             	mov    eax,DWORD PTR [rbp-0x14]  # eax = arg_count
 73b:	89 c6                	mov    esi,eax
 73d:	48 8d 3d 20 01 00 00 	lea    rdi,[rip+0x120]        # 864 <_IO_stdin_used+0x4>, printf_string
 744:	b8 00 00 00 00       	mov    eax,0x0
 749:	e8 92 fe ff ff       	call   5e0 <printf@plt>
 74e:	c7 45 f4 00 00 00 00 	mov    DWORD PTR [rbp-0xc],0x0
 755:	eb 31                	jmp    788 <main+0x6e>
 757:	8b 45 f4             	mov    eax,DWORD PTR [rbp-0xc]
 75a:	48 98                	cdqe   
 75c:	48 8d 14 c5 00 00 00 	lea    rdx,[rax*8+0x0]
 763:	00 
 764:	48 8b 45 e0          	mov    rax,QWORD PTR [rbp-0x20]
 768:	48 01 d0             	add    rax,rdx
 76b:	48 8b 10             	mov    rdx,QWORD PTR [rax]
 76e:	8b 45 f4             	mov    eax,DWORD PTR [rbp-0xc]
 771:	89 c6                	mov    esi,eax
 773:	48 8d 3d 06 01 00 00 	lea    rdi,[rip+0x106]        # 880 <_IO_stdin_used+0x20>
 77a:	b8 00 00 00 00       	mov    eax,0x0
 77f:	e8 5c fe ff ff       	call   5e0 <printf@plt>
 784:	83 45 f4 01          	add    DWORD PTR [rbp-0xc],0x1
 788:	8b 45 f4             	mov    eax,DWORD PTR [rbp-0xc]
 78b:	3b 45 ec             	cmp    eax,DWORD PTR [rbp-0x14]
 78e:	7c c7                	jl     757 <main+0x3d>
 790:	48 8d 45 f0          	lea    rax,[rbp-0x10]
 794:	48 89 c6             	mov    rsi,rax
 797:	48 8d 3d f5 00 00 00 	lea    rdi,[rip+0xf5]        # 893 <_IO_stdin_used+0x33>
 79e:	b8 00 00 00 00       	mov    eax,0x0
 7a3:	e8 48 fe ff ff       	call   5f0 <__isoc99_scanf@plt>
 7a8:	8b 45 f0             	mov    eax,DWORD PTR [rbp-0x10] # $rbp-0x10 : input val by scanf
 7ab:	89 c6                	mov    esi,eax
 7ad:	48 8d 3d e2 00 00 00 	lea    rdi,[rip+0xe2]        # 896 <_IO_stdin_used+0x36>
 7b4:	b8 00 00 00 00       	mov    eax,0x0
 7b9:	e8 22 fe ff ff       	call   5e0 <printf@plt>
 7be:	b8 00 00 00 00       	mov    eax,0x0
 7c3:	48 8b 4d f8          	mov    rcx,QWORD PTR [rbp-0x8]
 7c7:	64 48 33 0c 25 28 00 	xor    rcx,QWORD PTR fs:0x28
 7ce:	00 00 
 7d0:	74 05                	je     7d7 <main+0xbd>
 7d2:	e8 f9 fd ff ff       	call   5d0 <__stack_chk_fail@plt>
 7d7:	c9                   	leave  
 7d8:	c3                   	ret    
 7d9:	0f 1f 80 00 00 00 00 	nop    DWORD PTR [rax+0x0]

00000000000007e0 <__libc_csu_init>:
 7e0:	41 57                	push   r15
 7e2:	41 56                	push   r14
 7e4:	49 89 d7             	mov    r15,rdx
 7e7:	41 55                	push   r13
 7e9:	41 54                	push   r12
 7eb:	4c 8d 25 b6 05 20 00 	lea    r12,[rip+0x2005b6]        # 200da8 <__frame_dummy_init_array_entry>
 7f2:	55                   	push   rbp
 7f3:	48 8d 2d b6 05 20 00 	lea    rbp,[rip+0x2005b6]        # 200db0 <__init_array_end>
 7fa:	53                   	push   rbx
 7fb:	41 89 fd             	mov    r13d,edi
 7fe:	49 89 f6             	mov    r14,rsi
 801:	4c 29 e5             	sub    rbp,r12
 804:	48 83 ec 08          	sub    rsp,0x8
 808:	48 c1 fd 03          	sar    rbp,0x3
 80c:	e8 97 fd ff ff       	call   5a8 <_init>
 811:	48 85 ed             	test   rbp,rbp
 814:	74 20                	je     836 <__libc_csu_init+0x56>
 816:	31 db                	xor    ebx,ebx
 818:	0f 1f 84 00 00 00 00 	nop    DWORD PTR [rax+rax*1+0x0]
 81f:	00 
 820:	4c 89 fa             	mov    rdx,r15
 823:	4c 89 f6             	mov    rsi,r14
 826:	44 89 ef             	mov    edi,r13d
 829:	41 ff 14 dc          	call   QWORD PTR [r12+rbx*8]
 82d:	48 83 c3 01          	add    rbx,0x1
 831:	48 39 dd             	cmp    rbp,rbx
 834:	75 ea                	jne    820 <__libc_csu_init+0x40>
 836:	48 83 c4 08          	add    rsp,0x8
 83a:	5b                   	pop    rbx
 83b:	5d                   	pop    rbp
 83c:	41 5c                	pop    r12
 83e:	41 5d                	pop    r13
 840:	41 5e                	pop    r14
 842:	41 5f                	pop    r15
 844:	c3                   	ret    
 845:	90                   	nop
 846:	66 2e 0f 1f 84 00 00 	nop    WORD PTR cs:[rax+rax*1+0x0]
 84d:	00 00 00 

0000000000000850 <__libc_csu_fini>:
 850:	f3 c3                	repz ret 

Disassembly of section .fini:

0000000000000854 <_fini>:
 854:	48 83 ec 08          	sub    rsp,0x8
 858:	48 83 c4 08          	add    rsp,0x8
 85c:	c3                   	ret    
